target datalayout = "e-m:e-p270:32:32-p271:32:32-p272:64:64-i64:64-i128:128-f80:128-n8:16:32:64-S128"
target triple = "x86_64-pc-linux-gnu"

%"class.std::ios_base::Init" = type { i8 }
%"class.cvc5::internal::theory::quantifiers::inst::IMGenerator" = type { %"class.cvc5::internal::EnvObj", ptr, ptr, ptr }
%"class.cvc5::internal::EnvObj" = type { ptr, ptr }
%"class.cvc5::internal::theory::quantifiers::inst::Trigger" = type { %"class.cvc5::internal::EnvObj", %"class.std::vector", %"class.cvc5::internal::NodeTemplate", %"class.std::vector", ptr, ptr, ptr, ptr, %"class.cvc5::internal::NodeTemplate", ptr, %"class.cvc5::internal::theory::quantifiers::InstMatch" }
%"class.std::vector" = type { %"struct.std::_Vector_base" }
%"struct.std::_Vector_base" = type { %"struct.std::_Vector_base<cvc5::internal::NodeTemplate<true>, std::allocator<cvc5::internal::NodeTemplate<true>>>::_Vector_impl" }
%"struct.std::_Vector_base<cvc5::internal::NodeTemplate<true>, std::allocator<cvc5::internal::NodeTemplate<true>>>::_Vector_impl" = type { %"struct.std::_Vector_base<cvc5::internal::NodeTemplate<true>, std::allocator<cvc5::internal::NodeTemplate<true>>>::_Vector_impl_data" }
%"struct.std::_Vector_base<cvc5::internal::NodeTemplate<true>, std::allocator<cvc5::internal::NodeTemplate<true>>>::_Vector_impl_data" = type { ptr, ptr, ptr }
%"class.cvc5::internal::NodeTemplate" = type { ptr }
%"class.cvc5::internal::theory::quantifiers::InstMatch" = type { %"class.cvc5::internal::EnvObj", ptr, ptr, %"class.std::vector", %"class.cvc5::internal::NodeTemplate", ptr }

$_ZN4cvc58internal6EnvObjD2Ev = comdat any

$_ZN4cvc58internal6theory11quantifiers4inst11IMGeneratorD0Ev = comdat any

$_ZN4cvc58internal6theory11quantifiers4inst11IMGenerator23resetInstantiationRoundEv = comdat any

$_ZN4cvc58internal6theory11quantifiers4inst11IMGenerator5resetENS0_12NodeTemplateILb1EEE = comdat any

$_ZN4cvc58internal6theory11quantifiers4inst11IMGenerator12getNextMatchERNS2_9InstMatchE = comdat any

$_ZN4cvc58internal6theory11quantifiers4inst11IMGenerator17addInstantiationsERNS2_9InstMatchE = comdat any

$_ZN4cvc58internal6theory11quantifiers4inst11IMGenerator14getActiveScoreEv = comdat any

$_ZTVN4cvc58internal6theory11quantifiers4inst11IMGeneratorE = comdat any

$_ZTIN4cvc58internal6theory11quantifiers4inst11IMGeneratorE = comdat any

$_ZTSN4cvc58internal6theory11quantifiers4inst11IMGeneratorE = comdat any

$_ZTIN4cvc58internal6EnvObjE = comdat any

$_ZTSN4cvc58internal6EnvObjE = comdat any

@_ZStL8__ioinit = internal global %"class.std::ios_base::Init" zeroinitializer, align 1
@__dso_handle = external hidden global i8
@_ZTVN4cvc58internal6theory11quantifiers4inst11IMGeneratorE = linkonce_odr hidden unnamed_addr constant { [9 x ptr] } { [9 x ptr] [ptr null, ptr @_ZTIN4cvc58internal6theory11quantifiers4inst11IMGeneratorE, ptr @_ZN4cvc58internal6EnvObjD2Ev, ptr @_ZN4cvc58internal6theory11quantifiers4inst11IMGeneratorD0Ev, ptr @_ZN4cvc58internal6theory11quantifiers4inst11IMGenerator23resetInstantiationRoundEv, ptr @_ZN4cvc58internal6theory11quantifiers4inst11IMGenerator5resetENS0_12NodeTemplateILb1EEE, ptr @_ZN4cvc58internal6theory11quantifiers4inst11IMGenerator12getNextMatchERNS2_9InstMatchE, ptr @_ZN4cvc58internal6theory11quantifiers4inst11IMGenerator17addInstantiationsERNS2_9InstMatchE, ptr @_ZN4cvc58internal6theory11quantifiers4inst11IMGenerator14getActiveScoreEv] }, comdat, align 8
@_ZTIN4cvc58internal6theory11quantifiers4inst11IMGeneratorE = linkonce_odr hidden constant { ptr, ptr, i32, i32, ptr, i64 } { ptr getelementptr inbounds (ptr, ptr @_ZTVN10__cxxabiv121__vmi_class_type_infoE, i64 2), ptr @_ZTSN4cvc58internal6theory11quantifiers4inst11IMGeneratorE, i32 0, i32 1, ptr @_ZTIN4cvc58internal6EnvObjE, i64 0 }, comdat, align 8
@_ZTVN10__cxxabiv121__vmi_class_type_infoE = external global [0 x ptr]
@_ZTSN4cvc58internal6theory11quantifiers4inst11IMGeneratorE = linkonce_odr hidden constant [55 x i8] c"N4cvc58internal6theory11quantifiers4inst11IMGeneratorE\00", comdat, align 1
@_ZTIN4cvc58internal6EnvObjE = linkonce_odr hidden constant { ptr, ptr } { ptr getelementptr inbounds (ptr, ptr @_ZTVN10__cxxabiv117__class_type_infoE, i64 2), ptr @_ZTSN4cvc58internal6EnvObjE }, comdat, align 8
@_ZTVN10__cxxabiv117__class_type_infoE = external global [0 x ptr]
@_ZTSN4cvc58internal6EnvObjE = linkonce_odr hidden constant [24 x i8] c"N4cvc58internal6EnvObjE\00", comdat, align 1
@llvm.global_ctors = appending global [1 x { i32, ptr, ptr }] [{ i32, ptr, ptr } { i32 65535, ptr @_GLOBAL__sub_I_im_generator.cpp, ptr null }]

@_ZN4cvc58internal6theory11quantifiers4inst11IMGeneratorC1ERNS0_3EnvEPNS3_7TriggerE = hidden unnamed_addr alias void (ptr, ptr, ptr), ptr @_ZN4cvc58internal6theory11quantifiers4inst11IMGeneratorC2ERNS0_3EnvEPNS3_7TriggerE

; Function Attrs: uwtable
define internal void @__cxx_global_var_init() #0 section ".text.startup" {
  call void @_ZNSt8ios_base4InitC1Ev(ptr noundef nonnull align 1 dereferenceable(1) @_ZStL8__ioinit)
  %1 = call i32 @__cxa_atexit(ptr @_ZNSt8ios_base4InitD1Ev, ptr @_ZStL8__ioinit, ptr @__dso_handle) #3
  ret void
}

declare void @_ZNSt8ios_base4InitC1Ev(ptr noundef nonnull align 1 dereferenceable(1)) unnamed_addr #1

; Function Attrs: nounwind
declare void @_ZNSt8ios_base4InitD1Ev(ptr noundef nonnull align 1 dereferenceable(1)) unnamed_addr #2

; Function Attrs: nounwind
declare i32 @__cxa_atexit(ptr, ptr, ptr) #3

; Function Attrs: mustprogress uwtable
define hidden void @_ZN4cvc58internal6theory11quantifiers4inst11IMGeneratorC2ERNS0_3EnvEPNS3_7TriggerE(ptr noundef nonnull align 8 dereferenceable(40) %0, ptr noundef nonnull align 1 %1, ptr noundef %2) unnamed_addr #4 align 2 {
  %4 = alloca ptr, align 8
  %5 = alloca ptr, align 8
  %6 = alloca ptr, align 8
  store ptr %0, ptr %4, align 8, !tbaa !3
  store ptr %1, ptr %5, align 8, !tbaa !8
  store ptr %2, ptr %6, align 8, !tbaa !10
  %7 = load ptr, ptr %4, align 8
  %8 = load ptr, ptr %5, align 8, !tbaa !8
  call void @_ZN4cvc58internal6EnvObjC2ERNS0_3EnvE(ptr noundef nonnull align 8 dereferenceable(16) %7, ptr noundef nonnull align 1 %8)
  store ptr getelementptr inbounds inrange(-16, 56) ({ [9 x ptr] }, ptr @_ZTVN4cvc58internal6theory11quantifiers4inst11IMGeneratorE, i32 0, i32 0, i32 2), ptr %7, align 8, !tbaa !12
  %9 = getelementptr inbounds nuw %"class.cvc5::internal::theory::quantifiers::inst::IMGenerator", ptr %7, i32 0, i32 1
  %10 = load ptr, ptr %6, align 8, !tbaa !10
  store ptr %10, ptr %9, align 8, !tbaa !14
  %11 = getelementptr inbounds nuw %"class.cvc5::internal::theory::quantifiers::inst::IMGenerator", ptr %7, i32 0, i32 2
  %12 = load ptr, ptr %6, align 8, !tbaa !10
  %13 = getelementptr inbounds nuw %"class.cvc5::internal::theory::quantifiers::inst::Trigger", ptr %12, i32 0, i32 4
  %14 = load ptr, ptr %13, align 8, !tbaa !19
  store ptr %14, ptr %11, align 8, !tbaa !32
  %15 = getelementptr inbounds nuw %"class.cvc5::internal::theory::quantifiers::inst::IMGenerator", ptr %7, i32 0, i32 3
  %16 = load ptr, ptr %6, align 8, !tbaa !10
  %17 = getelementptr inbounds nuw %"class.cvc5::internal::theory::quantifiers::inst::Trigger", ptr %16, i32 0, i32 7
  %18 = load ptr, ptr %17, align 8, !tbaa !33
  store ptr %18, ptr %15, align 8, !tbaa !34
  ret void
}

declare void @_ZN4cvc58internal6EnvObjC2ERNS0_3EnvE(ptr noundef nonnull align 8 dereferenceable(16), ptr noundef nonnull align 1) unnamed_addr #1

; Function Attrs: mustprogress uwtable
define hidden noundef zeroext i1 @_ZN4cvc58internal6theory11quantifiers4inst11IMGenerator17sendInstantiationERSt6vectorINS0_12NodeTemplateILb1EEESaIS7_EENS1_11InferenceIdE(ptr noundef nonnull align 8 dereferenceable(40) %0, ptr noundef nonnull align 8 dereferenceable(24) %1, i32 noundef %2) #4 align 2 {
  %4 = alloca ptr, align 8
  %5 = alloca ptr, align 8
  %6 = alloca i32, align 4
  store ptr %0, ptr %4, align 8, !tbaa !3
  store ptr %1, ptr %5, align 8, !tbaa !35
  store i32 %2, ptr %6, align 4, !tbaa !37
  %7 = load ptr, ptr %4, align 8
  %8 = getelementptr inbounds nuw %"class.cvc5::internal::theory::quantifiers::inst::IMGenerator", ptr %7, i32 0, i32 1
  %9 = load ptr, ptr %8, align 8, !tbaa !14
  %10 = load ptr, ptr %5, align 8, !tbaa !35
  %11 = load i32, ptr %6, align 4, !tbaa !37
  %12 = load ptr, ptr %9, align 8, !tbaa !12
  %13 = getelementptr inbounds ptr, ptr %12, i64 3
  %14 = load ptr, ptr %13, align 8
  %15 = call noundef zeroext i1 %14(ptr noundef nonnull align 8 dereferenceable(192) %9, ptr noundef nonnull align 8 dereferenceable(24) %10, i32 noundef %11)
  ret i1 %15
}

; Function Attrs: mustprogress nounwind uwtable
define linkonce_odr hidden void @_ZN4cvc58internal6EnvObjD2Ev(ptr noundef nonnull align 8 dereferenceable(16) %0) unnamed_addr #5 comdat align 2 {
  %2 = alloca ptr, align 8
  store ptr %0, ptr %2, align 8, !tbaa !39
  ret void
}

; Function Attrs: mustprogress nounwind uwtable
define linkonce_odr hidden void @_ZN4cvc58internal6theory11quantifiers4inst11IMGeneratorD0Ev(ptr noundef nonnull align 8 dereferenceable(40) %0) unnamed_addr #5 comdat align 2 {
  %2 = alloca ptr, align 8
  store ptr %0, ptr %2, align 8, !tbaa !3
  %3 = load ptr, ptr %2, align 8
  call void @_ZN4cvc58internal6EnvObjD2Ev(ptr noundef nonnull align 8 dereferenceable(40) %3) #3
  call void @_ZdlPvm(ptr noundef %3, i64 noundef 40) #7
  ret void
}

; Function Attrs: mustprogress nounwind uwtable
define linkonce_odr hidden void @_ZN4cvc58internal6theory11quantifiers4inst11IMGenerator23resetInstantiationRoundEv(ptr noundef nonnull align 8 dereferenceable(40) %0) unnamed_addr #5 comdat align 2 {
  %2 = alloca ptr, align 8
  store ptr %0, ptr %2, align 8, !tbaa !3
  ret void
}

; Function Attrs: mustprogress nounwind uwtable
define linkonce_odr hidden noundef zeroext i1 @_ZN4cvc58internal6theory11quantifiers4inst11IMGenerator5resetENS0_12NodeTemplateILb1EEE(ptr noundef nonnull align 8 dereferenceable(40) %0, ptr noundef %1) unnamed_addr #5 comdat align 2 {
  %3 = alloca ptr, align 8
  %4 = alloca ptr, align 8
  store ptr %0, ptr %3, align 8, !tbaa !3
  store ptr %1, ptr %4, align 8, !tbaa !41
  ret i1 true
}

; Function Attrs: mustprogress nounwind uwtable
define linkonce_odr hidden noundef i32 @_ZN4cvc58internal6theory11quantifiers4inst11IMGenerator12getNextMatchERNS2_9InstMatchE(ptr noundef nonnull align 8 dereferenceable(40) %0, ptr noundef nonnull align 8 dereferenceable(72) %1) unnamed_addr #5 comdat align 2 {
  %3 = alloca ptr, align 8
  %4 = alloca ptr, align 8
  store ptr %0, ptr %3, align 8, !tbaa !3
  store ptr %1, ptr %4, align 8, !tbaa !42
  ret i32 0
}

; Function Attrs: mustprogress nounwind uwtable
define linkonce_odr hidden noundef i64 @_ZN4cvc58internal6theory11quantifiers4inst11IMGenerator17addInstantiationsERNS2_9InstMatchE(ptr noundef nonnull align 8 dereferenceable(40) %0, ptr noundef nonnull align 8 dereferenceable(72) %1) unnamed_addr #5 comdat align 2 {
  %3 = alloca ptr, align 8
  %4 = alloca ptr, align 8
  store ptr %0, ptr %3, align 8, !tbaa !3
  store ptr %1, ptr %4, align 8, !tbaa !42
  ret i64 0
}

; Function Attrs: mustprogress nounwind uwtable
define linkonce_odr hidden noundef i32 @_ZN4cvc58internal6theory11quantifiers4inst11IMGenerator14getActiveScoreEv(ptr noundef nonnull align 8 dereferenceable(40) %0) unnamed_addr #5 comdat align 2 {
  %2 = alloca ptr, align 8
  store ptr %0, ptr %2, align 8, !tbaa !3
  ret i32 0
}

; Function Attrs: nobuiltin nounwind
declare void @_ZdlPvm(ptr noundef, i64 noundef) #6

; Function Attrs: uwtable
define internal void @_GLOBAL__sub_I_im_generator.cpp() #0 section ".text.startup" {
  call void @__cxx_global_var_init()
  ret void
}


!llvm.module.flags = !{!0, !1, !2}

!0 = !{i32 1, !"wchar_size", i32 4}
!1 = !{i32 8, !"PIC Level", i32 2}
!2 = !{i32 7, !"uwtable", i32 2}
!3 = !{!4, !4, i64 0}
!4 = !{!"p1 _ZTSN4cvc58internal6theory11quantifiers4inst11IMGeneratorE", !5, i64 0}
!5 = !{!"any pointer", !6, i64 0}
!6 = !{!"omnipotent char", !7, i64 0}
!7 = !{!"Simple C++ TBAA"}
!8 = !{!9, !9, i64 0}
!9 = !{!"p1 _ZTSN4cvc58internal3EnvE", !5, i64 0}
!10 = !{!11, !11, i64 0}
!11 = !{!"p1 _ZTSN4cvc58internal6theory11quantifiers4inst7TriggerE", !5, i64 0}
!12 = !{!13, !13, i64 0}
!13 = !{!"vtable pointer", !7, i64 0}
!14 = !{!15, !11, i64 16}
!15 = !{!"_ZTSN4cvc58internal6theory11quantifiers4inst11IMGeneratorE", !16, i64 0, !11, i64 16, !17, i64 24, !18, i64 32}
!16 = !{!"_ZTSN4cvc58internal6EnvObjE", !9, i64 8}
!17 = !{!"p1 _ZTSN4cvc58internal6theory11quantifiers16QuantifiersStateE", !5, i64 0}
!18 = !{!"p1 _ZTSN4cvc58internal6theory11quantifiers12TermRegistryE", !5, i64 0}
!19 = !{!20, !17, i64 72}
!20 = !{!"_ZTSN4cvc58internal6theory11quantifiers4inst7TriggerE", !16, i64 0, !21, i64 16, !26, i64 40, !21, i64 48, !17, i64 72, !28, i64 80, !29, i64 88, !18, i64 96, !26, i64 104, !4, i64 112, !30, i64 120}
!21 = !{!"_ZTSSt6vectorIN4cvc58internal12NodeTemplateILb1EEESaIS3_EE", !22, i64 0}
!22 = !{!"_ZTSSt12_Vector_baseIN4cvc58internal12NodeTemplateILb1EEESaIS3_EE", !23, i64 0}
!23 = !{!"_ZTSNSt12_Vector_baseIN4cvc58internal12NodeTemplateILb1EEESaIS3_EE12_Vector_implE", !24, i64 0}
!24 = !{!"_ZTSNSt12_Vector_baseIN4cvc58internal12NodeTemplateILb1EEESaIS3_EE17_Vector_impl_dataE", !25, i64 0, !25, i64 8, !25, i64 16}
!25 = !{!"p1 _ZTSN4cvc58internal12NodeTemplateILb1EEE", !5, i64 0}
!26 = !{!"_ZTSN4cvc58internal12NodeTemplateILb1EEE", !27, i64 0}
!27 = !{!"p1 _ZTSN4cvc58internal4expr9NodeValueE", !5, i64 0}
!28 = !{!"p1 _ZTSN4cvc58internal6theory11quantifiers27QuantifiersInferenceManagerE", !5, i64 0}
!29 = !{!"p1 _ZTSN4cvc58internal6theory11quantifiers19QuantifiersRegistryE", !5, i64 0}
!30 = !{!"_ZTSN4cvc58internal6theory11quantifiers9InstMatchE", !16, i64 0, !17, i64 16, !18, i64 24, !21, i64 32, !26, i64 56, !31, i64 64}
!31 = !{!"p1 _ZTSN4cvc58internal6theory11quantifiers5ieval13InstEvaluatorE", !5, i64 0}
!32 = !{!17, !17, i64 0}
!33 = !{!20, !18, i64 96}
!34 = !{!18, !18, i64 0}
!35 = !{!36, !36, i64 0}
!36 = !{!"p1 _ZTSSt6vectorIN4cvc58internal12NodeTemplateILb1EEESaIS3_EE", !5, i64 0}
!37 = !{!38, !38, i64 0}
!38 = !{!"_ZTSN4cvc58internal6theory11InferenceIdE", !6, i64 0}
!39 = !{!40, !40, i64 0}
!40 = !{!"p1 _ZTSN4cvc58internal6EnvObjE", !5, i64 0}
!41 = !{!25, !25, i64 0}
!42 = !{!43, !43, i64 0}
!43 = !{!"p1 _ZTSN4cvc58internal6theory11quantifiers9InstMatchE", !5, i64 0}
